target datalayout = "e-m:e-p270:32:32-p271:32:32-p272:64:64-i64:64-i128:128-f80:128-n8:16:32:64-S128"
target triple = "x86_64-pc-linux-gnu"

%struct._seen_packet = type { i8, i32 }
%struct._e_guid_t = type { i32, i16, i16, [8 x i8] }
%struct._dcerpc_info = type { ptr, i32, i64, i8, i8, i8, i32, i32, i32, i32, i32, i32, i32, i32, ptr, ptr, ptr, ptr, %struct.anon }
%struct.anon = type { i8, ptr, ptr, ptr, i8 }
%struct._dcerpc_call_value = type { %struct._e_guid_t, i16, %struct._e_guid_t, i16, i32, %struct.nstime_t, i32, i32, ptr, ptr, ptr, i32 }
%struct.nstime_t = type { i64, i32 }

@hf_netlogon_acct_name = internal global i32 0, align 4
@.str.211 = private unnamed_addr constant [10 x i8] c"Acct Name\00", align 1
@hf_netlogon_computer_name = internal global i32 0, align 4
@.str.252 = private unnamed_addr constant [14 x i8] c"Computer Name\00", align 1
@hf_netlogon_logonsrv_handle = internal global i32 0, align 4
@hf_netlogon_secure_channel_type = internal global i32 0, align 4
@hf_netlogon_neg_flags = internal global i32 0, align 4
@hf_client_credential = internal global i32 0, align 4
@ett_authenticate_flags = internal global i32 0, align 4
@seen = internal global %struct._seen_packet zeroinitializer, align 4
@.str.1135 = private unnamed_addr constant [14 x i8] c"Server Handle\00", align 1

; Function Attrs: null_pointer_is_valid sspstrong uwtable
define internal ptr @netlogon_dissect_neg_options(ptr noundef %0, ptr noundef %1, i32 noundef %2, i32 noundef %3) #0 {
  %5 = alloca ptr, align 8
  %6 = alloca ptr, align 8
  %7 = alloca i32, align 4
  %8 = alloca i32, align 4
  store ptr %0, ptr %5, align 8
  store ptr %1, ptr %6, align 8
  store i32 %2, ptr %7, align 4
  store i32 %3, ptr %8, align 4
  %9 = load ptr, ptr %6, align 8
  %10 = load ptr, ptr %5, align 8
  %11 = load i32, ptr %8, align 4
  %12 = load i32, ptr @hf_netlogon_neg_flags, align 4
  %13 = load i32, ptr @ett_authenticate_flags, align 4
  %14 = load i32, ptr %7, align 4
  %15 = zext i32 %14 to i64
  %16 = call ptr @proto_tree_add_bitmask_value_with_flags(ptr noundef %9, ptr noundef %10, i32 noundef %11, i32 noundef %12, i32 noundef %13, ptr noundef @netlogon_dissect_neg_options.hf_flags, i64 noundef %15, i32 noundef 1)
  ret ptr %16
}

; Function Attrs: null_pointer_is_valid sspstrong uwtable
define internal i32 @dissect_dcerpc_8bytes(ptr noundef %0, i32 noundef %1, ptr noundef %2, ptr noundef %3, ptr noundef %4, i32 noundef %5, ptr noundef %6) #0 {
  %8 = alloca ptr, align 8
  %9 = alloca i32, align 4
  %10 = alloca ptr, align 8
  %11 = alloca ptr, align 8
  %12 = alloca ptr, align 8
  %13 = alloca i32, align 4
  %14 = alloca ptr, align 8
  %15 = alloca i64, align 8
  store ptr %0, ptr %8, align 8
  store i32 %1, ptr %9, align 4
  store ptr %2, ptr %10, align 8
  store ptr %3, ptr %11, align 8
  store ptr %4, ptr %12, align 8
  store i32 %5, ptr %13, align 4
  store ptr %6, ptr %14, align 8
  call void @llvm.lifetime.start.p0(i64 8, ptr %15) #15
  %16 = load ptr, ptr %12, align 8
  %17 = getelementptr i8, ptr %16, i64 0
  %18 = load i8, ptr %17, align 1
  %19 = zext i8 %18 to i32
  %20 = and i32 %19, 16
  %21 = icmp ne i32 %20, 0
  br i1 %21, label %22, label %26

22:                                               ; preds = %7
  %23 = load ptr, ptr %8, align 8
  %24 = load i32, ptr %9, align 4
  %25 = call i64 @tvb_get_letoh64(ptr noundef %23, i32 noundef %24)
  br label %30

26:                                               ; preds = %7
  %27 = load ptr, ptr %8, align 8
  %28 = load i32, ptr %9, align 4
  %29 = call i64 @tvb_get_ntoh64(ptr noundef %27, i32 noundef %28)
  br label %30

30:                                               ; preds = %26, %22
  %31 = phi i64 [ %25, %22 ], [ %29, %26 ]
  store i64 %31, ptr %15, align 8
  %32 = load ptr, ptr %11, align 8
  %33 = icmp ne ptr %32, null
  br i1 %33, label %34, label %40

34:                                               ; preds = %30
  %35 = load ptr, ptr %11, align 8
  %36 = load i32, ptr %13, align 4
  %37 = load ptr, ptr %8, align 8
  %38 = load i32, ptr %9, align 4
  %39 = call ptr @proto_tree_add_item(ptr noundef %35, i32 noundef %36, ptr noundef %37, i32 noundef %38, i32 noundef 8, i32 noundef 0)
  br label %40

40:                                               ; preds = %34, %30
  %41 = load ptr, ptr %14, align 8
  %42 = icmp ne ptr %41, null
  br i1 %42, label %43, label %46

43:                                               ; preds = %40
  %44 = load i64, ptr %15, align 8
  %45 = load ptr, ptr %14, align 8
  store i64 %44, ptr %45, align 8
  br label %46

46:                                               ; preds = %43, %40
  %47 = load i32, ptr %9, align 4
  %48 = add i32 %47, 8
  call void @llvm.lifetime.end.p0(i64 8, ptr %15) #15
  ret i32 %48
}

; Function Attrs: null_pointer_is_valid sspstrong uwtable
define internal i32 @netlogon_dissect_NETLOGON_SECURE_CHANNEL_TYPE(ptr noundef %0, i32 noundef %1, ptr noundef %2, ptr noundef %3, ptr noundef %4, ptr noundef %5) #0 {
  %7 = alloca ptr, align 8
  %8 = alloca i32, align 4
  %9 = alloca ptr, align 8
  %10 = alloca ptr, align 8
  %11 = alloca ptr, align 8
  %12 = alloca ptr, align 8
  store ptr %0, ptr %7, align 8
  store i32 %1, ptr %8, align 4
  store ptr %2, ptr %9, align 8
  store ptr %3, ptr %10, align 8
  store ptr %4, ptr %11, align 8
  store ptr %5, ptr %12, align 8
  %13 = load ptr, ptr %7, align 8
  %14 = load i32, ptr %8, align 4
  %15 = load ptr, ptr %9, align 8
  %16 = load ptr, ptr %10, align 8
  %17 = load ptr, ptr %11, align 8
  %18 = load ptr, ptr %12, align 8
  %19 = load i32, ptr @hf_netlogon_secure_channel_type, align 4
  %20 = call i32 @dissect_ndr_uint1632(ptr noundef %13, i32 noundef %14, ptr noundef %15, ptr noundef %16, ptr noundef %17, ptr noundef %18, i32 noundef %19, ptr noundef null)
  store i32 %20, ptr %8, align 4
  %21 = load i32, ptr %8, align 4
  ret i32 %21
}

; Function Attrs: null_pointer_is_valid sspstrong uwtable
define internal i32 @netlogon_dissect_LOGONSRV_HANDLE(ptr noundef %0, i32 noundef %1, ptr noundef %2, ptr noundef %3, ptr noundef %4, ptr noundef %5) #0 {
  %7 = alloca ptr, align 8
  %8 = alloca i32, align 4
  %9 = alloca ptr, align 8
  %10 = alloca ptr, align 8
  %11 = alloca ptr, align 8
  %12 = alloca ptr, align 8
  store ptr %0, ptr %7, align 8
  store i32 %1, ptr %8, align 4
  store ptr %2, ptr %9, align 8
  store ptr %3, ptr %10, align 8
  store ptr %4, ptr %11, align 8
  store ptr %5, ptr %12, align 8
  %13 = load ptr, ptr %7, align 8
  %14 = load i32, ptr %8, align 4
  %15 = load ptr, ptr %9, align 8
  %16 = load ptr, ptr %10, align 8
  %17 = load ptr, ptr %11, align 8
  %18 = load ptr, ptr %12, align 8
  %19 = load i32, ptr @hf_netlogon_logonsrv_handle, align 4
  %20 = call i32 @dissect_ndr_str_pointer_item(ptr noundef %13, i32 noundef %14, ptr noundef %15, ptr noundef %16, ptr noundef %17, ptr noundef %18, i32 noundef 2, ptr noundef @.str.1135, i32 noundef %19, i32 noundef 0)
  store i32 %20, ptr %8, align 4
  %21 = load i32, ptr %8, align 4
  ret i32 %21
}

; Function Attrs: null_pointer_is_valid sspstrong uwtable
define internal i32 @netlogon_dissect_netrserverauthenticate3_rqst(ptr noundef %0, i32 noundef %1, ptr noundef %2, ptr noundef %3, ptr noundef %4, ptr noundef %5) #0 {
  %7 = alloca ptr, align 8
  %8 = alloca i32, align 4
  %9 = alloca ptr, align 8
  %10 = alloca ptr, align 8
  %11 = alloca ptr, align 8
  %12 = alloca ptr, align 8
  %13 = alloca i32, align 4
  store ptr %0, ptr %7, align 8
  store i32 %1, ptr %8, align 4
  store ptr %2, ptr %9, align 8
  store ptr %3, ptr %10, align 8
  store ptr %4, ptr %11, align 8
  store ptr %5, ptr %12, align 8
  call void @llvm.lifetime.start.p0(i64 4, ptr %13) #15
  %14 = load ptr, ptr %7, align 8
  %15 = load i32, ptr %8, align 4
  %16 = load ptr, ptr %9, align 8
  %17 = load ptr, ptr %10, align 8
  %18 = load ptr, ptr %11, align 8
  %19 = load ptr, ptr %12, align 8
  %20 = call i32 @netlogon_dissect_LOGONSRV_HANDLE(ptr noundef %14, i32 noundef %15, ptr noundef %16, ptr noundef %17, ptr noundef %18, ptr noundef %19)
  store i32 %20, ptr %8, align 4
  %21 = load ptr, ptr %11, align 8
  %22 = getelementptr inbounds nuw %struct._dcerpc_info, ptr %21, i32 0, i32 14
  %23 = load ptr, ptr %22, align 8
  %24 = getelementptr inbounds nuw %struct._dcerpc_call_value, ptr %23, i32 0, i32 11
  %25 = load i32, ptr %24, align 8
  %26 = and i32 %25, 1
  %27 = icmp ne i32 %26, 0
  br i1 %27, label %28, label %43

28:                                               ; preds = %6
  %29 = load ptr, ptr %11, align 8
  %30 = getelementptr inbounds nuw %struct._dcerpc_info, ptr %29, i32 0, i32 4
  %31 = load i8, ptr %30, align 1, !range !6, !noundef !7
  %32 = trunc i8 %31 to i1
  br i1 %32, label %42, label %33

33:                                               ; preds = %28
  %34 = load i32, ptr %8, align 4
  %35 = and i32 %34, 7
  %36 = icmp ne i32 %35, 0
  br i1 %36, label %37, label %41

37:                                               ; preds = %33
  %38 = load i32, ptr %8, align 4
  %39 = and i32 %38, -8
  %40 = add i32 %39, 8
  store i32 %40, ptr %8, align 4
  br label %41

41:                                               ; preds = %37, %33
  br label %42

42:                                               ; preds = %41, %28
  br label %58

43:                                               ; preds = %6
  %44 = load ptr, ptr %11, align 8
  %45 = getelementptr inbounds nuw %struct._dcerpc_info, ptr %44, i32 0, i32 4
  %46 = load i8, ptr %45, align 1, !range !6, !noundef !7
  %47 = trunc i8 %46 to i1
  br i1 %47, label %57, label %48

48:                                               ; preds = %43
  %49 = load i32, ptr %8, align 4
  %50 = and i32 %49, 3
  %51 = icmp ne i32 %50, 0
  br i1 %51, label %52, label %56

52:                                               ; preds = %48
  %53 = load i32, ptr %8, align 4
  %54 = and i32 %53, -4
  %55 = add i32 %54, 4
  store i32 %55, ptr %8, align 4
  br label %56

56:                                               ; preds = %52, %48
  br label %57

57:                                               ; preds = %56, %43
  br label %58

58:                                               ; preds = %57, %42
  %59 = load ptr, ptr %7, align 8
  %60 = load i32, ptr %8, align 4
  %61 = load ptr, ptr %9, align 8
  %62 = load ptr, ptr %10, align 8
  %63 = load ptr, ptr %11, align 8
  %64 = load ptr, ptr %12, align 8
  %65 = load i32, ptr @hf_netlogon_acct_name, align 4
  %66 = call i32 @dissect_ndr_str_pointer_item(ptr noundef %59, i32 noundef %60, ptr noundef %61, ptr noundef %62, ptr noundef %63, ptr noundef %64, i32 noundef 1, ptr noundef @.str.211, i32 noundef %65, i32 noundef 0)
  store i32 %66, ptr %8, align 4
  %67 = load ptr, ptr %11, align 8
  %68 = getelementptr inbounds nuw %struct._dcerpc_info, ptr %67, i32 0, i32 14
  %69 = load ptr, ptr %68, align 8
  %70 = getelementptr inbounds nuw %struct._dcerpc_call_value, ptr %69, i32 0, i32 11
  %71 = load i32, ptr %70, align 8
  %72 = and i32 %71, 1
  %73 = icmp ne i32 %72, 0
  br i1 %73, label %74, label %89

74:                                               ; preds = %58
  %75 = load ptr, ptr %11, align 8
  %76 = getelementptr inbounds nuw %struct._dcerpc_info, ptr %75, i32 0, i32 4
  %77 = load i8, ptr %76, align 1, !range !6, !noundef !7
  %78 = trunc i8 %77 to i1
  br i1 %78, label %88, label %79

79:                                               ; preds = %74
  %80 = load i32, ptr %8, align 4
  %81 = and i32 %80, 3
  %82 = icmp ne i32 %81, 0
  br i1 %82, label %83, label %87

83:                                               ; preds = %79
  %84 = load i32, ptr %8, align 4
  %85 = and i32 %84, -4
  %86 = add i32 %85, 4
  store i32 %86, ptr %8, align 4
  br label %87

87:                                               ; preds = %83, %79
  br label %88

88:                                               ; preds = %87, %74
  br label %104

89:                                               ; preds = %58
  %90 = load ptr, ptr %11, align 8
  %91 = getelementptr inbounds nuw %struct._dcerpc_info, ptr %90, i32 0, i32 4
  %92 = load i8, ptr %91, align 1, !range !6, !noundef !7
  %93 = trunc i8 %92 to i1
  br i1 %93, label %103, label %94

94:                                               ; preds = %89
  %95 = load i32, ptr %8, align 4
  %96 = and i32 %95, 1
  %97 = icmp ne i32 %96, 0
  br i1 %97, label %98, label %102

98:                                               ; preds = %94
  %99 = load i32, ptr %8, align 4
  %100 = and i32 %99, -2
  %101 = add i32 %100, 2
  store i32 %101, ptr %8, align 4
  br label %102

102:                                              ; preds = %98, %94
  br label %103

103:                                              ; preds = %102, %89
  br label %104

104:                                              ; preds = %103, %88
  %105 = load ptr, ptr %7, align 8
  %106 = load i32, ptr %8, align 4
  %107 = load ptr, ptr %9, align 8
  %108 = load ptr, ptr %10, align 8
  %109 = load ptr, ptr %11, align 8
  %110 = load ptr, ptr %12, align 8
  %111 = call i32 @netlogon_dissect_NETLOGON_SECURE_CHANNEL_TYPE(ptr noundef %105, i32 noundef %106, ptr noundef %107, ptr noundef %108, ptr noundef %109, ptr noundef %110)
  store i32 %111, ptr %8, align 4
  %112 = load ptr, ptr %11, align 8
  %113 = getelementptr inbounds nuw %struct._dcerpc_info, ptr %112, i32 0, i32 14
  %114 = load ptr, ptr %113, align 8
  %115 = getelementptr inbounds nuw %struct._dcerpc_call_value, ptr %114, i32 0, i32 11
  %116 = load i32, ptr %115, align 8
  %117 = and i32 %116, 1
  %118 = icmp ne i32 %117, 0
  br i1 %118, label %119, label %134

119:                                              ; preds = %104
  %120 = load ptr, ptr %11, align 8
  %121 = getelementptr inbounds nuw %struct._dcerpc_info, ptr %120, i32 0, i32 4
  %122 = load i8, ptr %121, align 1, !range !6, !noundef !7
  %123 = trunc i8 %122 to i1
  br i1 %123, label %133, label %124

124:                                              ; preds = %119
  %125 = load i32, ptr %8, align 4
  %126 = and i32 %125, 7
  %127 = icmp ne i32 %126, 0
  br i1 %127, label %128, label %132

128:                                              ; preds = %124
  %129 = load i32, ptr %8, align 4
  %130 = and i32 %129, -8
  %131 = add i32 %130, 8
  store i32 %131, ptr %8, align 4
  br label %132

132:                                              ; preds = %128, %124
  br label %133

133:                                              ; preds = %132, %119
  br label %149

134:                                              ; preds = %104
  %135 = load ptr, ptr %11, align 8
  %136 = getelementptr inbounds nuw %struct._dcerpc_info, ptr %135, i32 0, i32 4
  %137 = load i8, ptr %136, align 1, !range !6, !noundef !7
  %138 = trunc i8 %137 to i1
  br i1 %138, label %148, label %139

139:                                              ; preds = %134
  %140 = load i32, ptr %8, align 4
  %141 = and i32 %140, 3
  %142 = icmp ne i32 %141, 0
  br i1 %142, label %143, label %147

143:                                              ; preds = %139
  %144 = load i32, ptr %8, align 4
  %145 = and i32 %144, -4
  %146 = add i32 %145, 4
  store i32 %146, ptr %8, align 4
  br label %147

147:                                              ; preds = %143, %139
  br label %148

148:                                              ; preds = %147, %134
  br label %149

149:                                              ; preds = %148, %133
  %150 = load ptr, ptr %7, align 8
  %151 = load i32, ptr %8, align 4
  %152 = load ptr, ptr %9, align 8
  %153 = load ptr, ptr %10, align 8
  %154 = load ptr, ptr %11, align 8
  %155 = load ptr, ptr %12, align 8
  %156 = load i32, ptr @hf_netlogon_computer_name, align 4
  %157 = call i32 @dissect_ndr_str_pointer_item(ptr noundef %150, i32 noundef %151, ptr noundef %152, ptr noundef %153, ptr noundef %154, ptr noundef %155, i32 noundef 1, ptr noundef @.str.252, i32 noundef %156, i32 noundef 0)
  store i32 %157, ptr %8, align 4
  %158 = load ptr, ptr %7, align 8
  %159 = load i32, ptr %8, align 4
  %160 = load ptr, ptr %9, align 8
  %161 = load ptr, ptr %10, align 8
  %162 = load ptr, ptr %12, align 8
  %163 = load i32, ptr @hf_client_credential, align 4
  %164 = call i32 @dissect_dcerpc_8bytes(ptr noundef %158, i32 noundef %159, ptr noundef %160, ptr noundef %161, ptr noundef %162, i32 noundef %163, ptr noundef null)
  store i32 %164, ptr %8, align 4
  %165 = load ptr, ptr %11, align 8
  %166 = getelementptr inbounds nuw %struct._dcerpc_info, ptr %165, i32 0, i32 4
  %167 = load i8, ptr %166, align 1, !range !6, !noundef !7
  %168 = trunc i8 %167 to i1
  br i1 %168, label %178, label %169

169:                                              ; preds = %149
  %170 = load i32, ptr %8, align 4
  %171 = and i32 %170, 3
  %172 = icmp ne i32 %171, 0
  br i1 %172, label %173, label %177

173:                                              ; preds = %169
  %174 = load i32, ptr %8, align 4
  %175 = and i32 %174, -4
  %176 = add i32 %175, 4
  store i32 %176, ptr %8, align 4
  br label %177

177:                                              ; preds = %173, %169
  br label %178

178:                                              ; preds = %177, %149
  %179 = load ptr, ptr %7, align 8
  %180 = load i32, ptr %8, align 4
  %181 = call i32 @tvb_get_letohl(ptr noundef %179, i32 noundef %180)
  store i32 %181, ptr %13, align 4
  %182 = load ptr, ptr %7, align 8
  %183 = load ptr, ptr %10, align 8
  %184 = load i32, ptr %13, align 4
  %185 = load i32, ptr %8, align 4
  %186 = call ptr @netlogon_dissect_neg_options(ptr noundef %182, ptr noundef %183, i32 noundef %184, i32 noundef %185)
  store i8 0, ptr @seen, align 4
  store i32 0, ptr getelementptr inbounds nuw (%struct._seen_packet, ptr @seen, i32 0, i32 1), align 4
  %187 = load i32, ptr %8, align 4
  %188 = add i32 %187, 4
  store i32 %188, ptr %8, align 4
  %189 = load i32, ptr %8, align 4
  call void @llvm.lifetime.end.p0(i64 4, ptr %13) #15
  ret i32 %189
}