; Function Attrs: null_pointer_is_valid sspstrong uwtable
define internal noundef i32 @netlogon_dissect_netrserverauthenticate3_rqst(ptr noundef %0, i32 noundef %1, ptr noundef %2, ptr noundef %3, ptr noundef %4, ptr noundef %5) #0 {
  %7 = load i32, ptr @hf_netlogon_logonsrv_handle, align 4
  %8 = tail call i32 @dissect_ndr_str_pointer_item(ptr noundef %0, i32 noundef %1, ptr noundef %2, ptr noundef %3, ptr noundef %4, ptr noundef %5, i32 noundef 2, ptr noundef nonnull @.str.1135, i32 noundef %7, i32 noundef 0)
  %9 = getelementptr inbounds nuw i8, ptr %4, i64 64
  %10 = load ptr, ptr %9, align 8
  %11 = getelementptr inbounds nuw i8, ptr %10, i64 96
  %12 = load i32, ptr %11, align 8
  %13 = and i32 %12, 1
  %.not = icmp eq i32 %13, 0
  %14 = getelementptr inbounds nuw i8, ptr %4, i64 25
  %15 = load i8, ptr %14, align 1, !range !6, !noundef !7
  %16 = trunc nuw i8 %15 to i1
  br i1 %.not, label %22, label %17

17:                                               ; preds = %6
  %18 = and i32 %8, 7
  %.not61 = icmp eq i32 %18, 0
  %or.cond = select i1 %16, i1 true, i1 %.not61
  br i1 %or.cond, label %27, label %19

19:                                               ; preds = %17
  %20 = and i32 %8, -8
  %21 = add i32 %20, 8
  br label %27

22:                                               ; preds = %6
  %23 = and i32 %8, 3
  %.not60 = icmp eq i32 %23, 0
  %or.cond69 = select i1 %16, i1 true, i1 %.not60
  br i1 %or.cond69, label %27, label %24

24:                                               ; preds = %22
  %25 = and i32 %8, -4
  %26 = add i32 %25, 4
  br label %27

27:                                               ; preds = %22, %24, %17, %19
  %.0 = phi i32 [ %8, %17 ], [ %21, %19 ], [ %8, %22 ], [ %26, %24 ]
  %28 = load i32, ptr @hf_netlogon_acct_name, align 4
  %29 = tail call i32 @dissect_ndr_str_pointer_item(ptr noundef %0, i32 noundef %.0, ptr noundef %2, ptr noundef %3, ptr noundef %4, ptr noundef %5, i32 noundef 1, ptr noundef nonnull @.str.211, i32 noundef %28, i32 noundef 0)
  %30 = load ptr, ptr %9, align 8
  %31 = getelementptr inbounds nuw i8, ptr %30, i64 96
  %32 = load i32, ptr %31, align 8
  %33 = and i32 %32, 1
  %.not62 = icmp eq i32 %33, 0
  %34 = getelementptr inbounds nuw i8, ptr %4, i64 25
  %35 = load i8, ptr %34, align 1, !range !6, !noundef !7
  %36 = trunc nuw i8 %35 to i1
  br i1 %.not62, label %42, label %37

37:                                               ; preds = %27
  %38 = and i32 %29, 3
  %.not64 = icmp eq i32 %38, 0
  %or.cond70 = select i1 %36, i1 true, i1 %.not64
  br i1 %or.cond70, label %47, label %39

39:                                               ; preds = %37
  %40 = and i32 %29, -4
  %41 = add i32 %40, 4
  br label %47

42:                                               ; preds = %27
  %43 = and i32 %29, 1
  %.not63 = icmp eq i32 %43, 0
  %or.cond71 = select i1 %36, i1 true, i1 %.not63
  br i1 %or.cond71, label %47, label %44

44:                                               ; preds = %42
  %45 = and i32 %29, -2
  %46 = add i32 %45, 2
  br label %47

47:                                               ; preds = %42, %44, %37, %39
  %.1 = phi i32 [ %29, %37 ], [ %41, %39 ], [ %29, %42 ], [ %46, %44 ]
  %48 = load i32, ptr @hf_netlogon_secure_channel_type, align 4
  %49 = tail call i32 @dissect_ndr_uint1632(ptr noundef %0, i32 noundef %.1, ptr noundef %2, ptr noundef %3, ptr noundef %4, ptr noundef %5, i32 noundef %48, ptr noundef null)
  %50 = load ptr, ptr %9, align 8
  %51 = getelementptr inbounds nuw i8, ptr %50, i64 96
  %52 = load i32, ptr %51, align 8
  %53 = and i32 %52, 1
  %.not65 = icmp eq i32 %53, 0
  %54 = getelementptr inbounds nuw i8, ptr %4, i64 25
  %55 = load i8, ptr %54, align 1, !range !6, !noundef !7
  %56 = trunc nuw i8 %55 to i1
  br i1 %.not65, label %62, label %57

57:                                               ; preds = %47
  %58 = and i32 %49, 7
  %.not67 = icmp eq i32 %58, 0
  %or.cond72 = select i1 %56, i1 true, i1 %.not67
  br i1 %or.cond72, label %67, label %59

59:                                               ; preds = %57
  %60 = and i32 %49, -8
  %61 = add i32 %60, 8
  br label %67

62:                                               ; preds = %47
  %63 = and i32 %49, 3
  %.not66 = icmp eq i32 %63, 0
  %or.cond73 = select i1 %56, i1 true, i1 %.not66
  br i1 %or.cond73, label %67, label %64

64:                                               ; preds = %62
  %65 = and i32 %49, -4
  %66 = add i32 %65, 4
  br label %67

67:                                               ; preds = %62, %64, %57, %59
  %.2 = phi i32 [ %49, %57 ], [ %61, %59 ], [ %49, %62 ], [ %66, %64 ]
  %68 = load i32, ptr @hf_netlogon_computer_name, align 4
  %69 = tail call i32 @dissect_ndr_str_pointer_item(ptr noundef %0, i32 noundef %.2, ptr noundef %2, ptr noundef %3, ptr noundef %4, ptr noundef %5, i32 noundef 1, ptr noundef nonnull @.str.252, i32 noundef %68, i32 noundef 0)
  %70 = load i32, ptr @hf_client_credential, align 4
  %.val = load i8, ptr %5, align 1
  %71 = and i8 %.val, 16
  %.not.i = icmp eq i8 %71, 0
  br i1 %.not.i, label %74, label %72

72:                                               ; preds = %67
  %73 = tail call i64 @tvb_get_letoh64(ptr noundef %0, i32 noundef %69)
  br label %76

74:                                               ; preds = %67
  %75 = tail call i64 @tvb_get_ntoh64(ptr noundef %0, i32 noundef %69)
  br label %76

76:                                               ; preds = %74, %72
  %.not14.i = icmp eq ptr %3, null
  br i1 %.not14.i, label %dissect_dcerpc_8bytes.exit, label %77

77:                                               ; preds = %76
  %78 = tail call ptr @proto_tree_add_item(ptr noundef nonnull %3, i32 noundef %70, ptr noundef %0, i32 noundef %69, i32 noundef 8, i32 noundef 0)
  br label %dissect_dcerpc_8bytes.exit

dissect_dcerpc_8bytes.exit:                       ; preds = %76, %77
  %79 = add i32 %69, 8
  %80 = getelementptr inbounds nuw i8, ptr %4, i64 25
  %81 = load i8, ptr %80, align 1, !range !6, !noundef !7
  %82 = trunc nuw i8 %81 to i1
  %83 = and i32 %69, 3
  %.not68 = icmp eq i32 %83, 0
  %or.cond74 = select i1 %82, i1 true, i1 %.not68
  %84 = and i32 %79, -4
  %85 = add i32 %84, 4
  %.3 = select i1 %or.cond74, i32 %79, i32 %85
  %86 = tail call i32 @tvb_get_letohl(ptr noundef %0, i32 noundef %.3)
  %87 = load i32, ptr @hf_netlogon_neg_flags, align 4
  %88 = load i32, ptr @ett_authenticate_flags, align 4
  %89 = zext i32 %86 to i64
  %90 = tail call ptr @proto_tree_add_bitmask_value_with_flags(ptr noundef %3, ptr noundef %0, i32 noundef %.3, i32 noundef %87, i32 noundef %88, ptr noundef nonnull @netlogon_dissect_neg_options.hf_flags, i64 noundef %89, i32 noundef 1)
  store i1 false, ptr @seen.0, align 4
  store i32 0, ptr @seen.1, align 4
  %91 = add i32 %.3, 4
  ret i32 %91
}